; Function Attrs: nounwind uwtable
define internal fastcc void @Sim_SymmsBalanceCollect_rec(ptr noundef %0, ptr noundef captures(none) %1) unnamed_addr #0 {
  %3 = ptrtoint ptr %0 to i64
  %4 = and i64 %3, 1
  %.not37 = icmp eq i64 %4, 0
  br i1 %.not37, label %.lr.ph, label %tailrecurse._crit_edge

tailrecurse._crit_edge:                           ; preds = %tailrecurse, %2
  %.tr.lcssa = phi ptr [ %0, %2 ], [ %105, %tailrecurse ]
  %5 = getelementptr inbounds nuw i8, ptr %1, i64 4
  %6 = load i32, ptr %5, align 4, !tbaa !25
  %7 = icmp sgt i32 %6, 0
  br i1 %7, label %.lr.ph.i, label %._crit_edge.i

.lr.ph.i:                                         ; preds = %tailrecurse._crit_edge
  %8 = getelementptr inbounds nuw i8, ptr %1, i64 8
  %9 = load ptr, ptr %8, align 8, !tbaa !27
  %wide.trip.count.i = zext nneg i32 %6 to i64
  br label %11

10:                                               ; preds = %11
  %indvars.iv.next.i = add nuw nsw i64 %indvars.iv.i, 1
  %exitcond.not.i = icmp eq i64 %indvars.iv.next.i, %wide.trip.count.i
  br i1 %exitcond.not.i, label %._crit_edge.i, label %11, !llvm.loop !58

11:                                               ; preds = %10, %.lr.ph.i
  %indvars.iv.i = phi i64 [ 0, %.lr.ph.i ], [ %indvars.iv.next.i, %10 ]
  %12 = getelementptr inbounds nuw ptr, ptr %9, i64 %indvars.iv.i
  %13 = load ptr, ptr %12, align 8, !tbaa !28
  %14 = icmp eq ptr %13, %.tr.lcssa
  br i1 %14, label %Vec_PtrPushUnique.exit, label %10

._crit_edge.i:                                    ; preds = %10, %tailrecurse._crit_edge
  %15 = load i32, ptr %1, align 8, !tbaa !39
  %16 = icmp eq i32 %6, %15
  br i1 %16, label %17, label %.Vec_PtrGrow.exit11_crit_edge.i.i

.Vec_PtrGrow.exit11_crit_edge.i.i:                ; preds = %._crit_edge.i
  %.phi.trans.insert.i.i = getelementptr inbounds nuw i8, ptr %1, i64 8
  %.pre.i.i = load ptr, ptr %.phi.trans.insert.i.i, align 8, !tbaa !27
  br label %Vec_PtrPush.exit.i

17:                                               ; preds = %._crit_edge.i
  %18 = icmp slt i32 %6, 16
  br i1 %18, label %19, label %27

19:                                               ; preds = %17
  %20 = getelementptr inbounds nuw i8, ptr %1, i64 8
  %21 = load ptr, ptr %20, align 8, !tbaa !27
  %.not9.i.i.i = icmp eq ptr %21, null
  br i1 %.not9.i.i.i, label %24, label %22

22:                                               ; preds = %19
  %23 = tail call dereferenceable_or_null(128) ptr @realloc(ptr noundef nonnull %21, i64 noundef 128) #9
  br label %Vec_PtrGrow.exit.i.i

24:                                               ; preds = %19
  %25 = tail call noalias dereferenceable_or_null(128) ptr @malloc(i64 noundef 128) #8
  br label %Vec_PtrGrow.exit.i.i

Vec_PtrGrow.exit.i.i:                             ; preds = %24, %22
  %26 = phi ptr [ %23, %22 ], [ %25, %24 ]
  store ptr %26, ptr %20, align 8, !tbaa !27
  store i32 16, ptr %1, align 8, !tbaa !39
  br label %Vec_PtrPush.exit.i

27:                                               ; preds = %17
  %28 = shl nuw nsw i32 %6, 1
  %29 = getelementptr inbounds nuw i8, ptr %1, i64 8
  %30 = load ptr, ptr %29, align 8, !tbaa !27
  %.not9.i10.i.i = icmp eq ptr %30, null
  %31 = zext nneg i32 %28 to i64
  %32 = shl nuw nsw i64 %31, 3
  br i1 %.not9.i10.i.i, label %35, label %33

33:                                               ; preds = %27
  %34 = tail call ptr @realloc(ptr noundef nonnull %30, i64 noundef %32) #9
  br label %37

35:                                               ; preds = %27
  %36 = tail call noalias ptr @malloc(i64 noundef %32) #8
  br label %37

37:                                               ; preds = %35, %33
  %38 = phi ptr [ %34, %33 ], [ %36, %35 ]
  store ptr %38, ptr %29, align 8, !tbaa !27
  store i32 %28, ptr %1, align 8, !tbaa !39
  br label %Vec_PtrPush.exit.i

Vec_PtrPush.exit.i:                               ; preds = %37, %Vec_PtrGrow.exit.i.i, %.Vec_PtrGrow.exit11_crit_edge.i.i
  %39 = phi ptr [ %.pre.i.i, %.Vec_PtrGrow.exit11_crit_edge.i.i ], [ %38, %37 ], [ %26, %Vec_PtrGrow.exit.i.i ]
  %40 = load i32, ptr %5, align 4, !tbaa !25
  %41 = add nsw i32 %40, 1
  store i32 %41, ptr %5, align 4, !tbaa !25
  br label %Vec_PtrPushUnique.exit.sink.split

.lr.ph:                                           ; preds = %2, %tailrecurse
  %.tr38 = phi ptr [ %105, %tailrecurse ], [ %0, %2 ]
  %42 = getelementptr i8, ptr %.tr38, i64 20
  %.val = load i32, ptr %42, align 4
  %43 = and i32 %.val, 15
  switch i32 %43, label %tailrecurse [
    i32 5, label %44
    i32 2, label %44
  ]

44:                                               ; preds = %.lr.ph, %.lr.ph
  %45 = getelementptr inbounds nuw i8, ptr %1, i64 4
  %46 = load i32, ptr %45, align 4, !tbaa !25
  %47 = icmp sgt i32 %46, 0
  br i1 %47, label %.lr.ph.i20, label %._crit_edge.i11

.lr.ph.i20:                                       ; preds = %44
  %48 = getelementptr inbounds nuw i8, ptr %1, i64 8
  %49 = load ptr, ptr %48, align 8, !tbaa !27
  %wide.trip.count.i21 = zext nneg i32 %46 to i64
  br label %51

50:                                               ; preds = %51
  %indvars.iv.next.i23 = add nuw nsw i64 %indvars.iv.i22, 1
  %exitcond.not.i24 = icmp eq i64 %indvars.iv.next.i23, %wide.trip.count.i21
  br i1 %exitcond.not.i24, label %._crit_edge.i11, label %51, !llvm.loop !58

51:                                               ; preds = %50, %.lr.ph.i20
  %indvars.iv.i22 = phi i64 [ 0, %.lr.ph.i20 ], [ %indvars.iv.next.i23, %50 ]
  %52 = getelementptr inbounds nuw ptr, ptr %49, i64 %indvars.iv.i22
  %53 = load ptr, ptr %52, align 8, !tbaa !28
  %54 = icmp eq ptr %53, %.tr38
  br i1 %54, label %Vec_PtrPushUnique.exit, label %50

._crit_edge.i11:                                  ; preds = %50, %44
  %55 = load i32, ptr %1, align 8, !tbaa !39
  %56 = icmp eq i32 %46, %55
  br i1 %56, label %57, label %.Vec_PtrGrow.exit11_crit_edge.i.i12

.Vec_PtrGrow.exit11_crit_edge.i.i12:              ; preds = %._crit_edge.i11
  %.phi.trans.insert.i.i13 = getelementptr inbounds nuw i8, ptr %1, i64 8
  %.pre.i.i14 = load ptr, ptr %.phi.trans.insert.i.i13, align 8, !tbaa !27
  br label %Vec_PtrPush.exit.i15

57:                                               ; preds = %._crit_edge.i11
  %58 = icmp slt i32 %46, 16
  br i1 %58, label %59, label %67

59:                                               ; preds = %57
  %60 = getelementptr inbounds nuw i8, ptr %1, i64 8
  %61 = load ptr, ptr %60, align 8, !tbaa !27
  %.not9.i.i.i18 = icmp eq ptr %61, null
  br i1 %.not9.i.i.i18, label %64, label %62

62:                                               ; preds = %59
  %63 = tail call dereferenceable_or_null(128) ptr @realloc(ptr noundef nonnull %61, i64 noundef 128) #9
  br label %Vec_PtrGrow.exit.i.i19

64:                                               ; preds = %59
  %65 = tail call noalias dereferenceable_or_null(128) ptr @malloc(i64 noundef 128) #8
  br label %Vec_PtrGrow.exit.i.i19

Vec_PtrGrow.exit.i.i19:                           ; preds = %64, %62
  %66 = phi ptr [ %63, %62 ], [ %65, %64 ]
  store ptr %66, ptr %60, align 8, !tbaa !27
  store i32 16, ptr %1, align 8, !tbaa !39
  br label %Vec_PtrPush.exit.i15

67:                                               ; preds = %57
  %68 = shl nuw nsw i32 %46, 1
  %69 = getelementptr inbounds nuw i8, ptr %1, i64 8
  %70 = load ptr, ptr %69, align 8, !tbaa !27
  %.not9.i10.i.i17 = icmp eq ptr %70, null
  %71 = zext nneg i32 %68 to i64
  %72 = shl nuw nsw i64 %71, 3
  br i1 %.not9.i10.i.i17, label %75, label %73

73:                                               ; preds = %67
  %74 = tail call ptr @realloc(ptr noundef nonnull %70, i64 noundef %72) #9
  br label %77

75:                                               ; preds = %67
  %76 = tail call noalias ptr @malloc(i64 noundef %72) #8
  br label %77

77:                                               ; preds = %75, %73
  %78 = phi ptr [ %74, %73 ], [ %76, %75 ]
  store ptr %78, ptr %69, align 8, !tbaa !27
  store i32 %68, ptr %1, align 8, !tbaa !39
  br label %Vec_PtrPush.exit.i15

Vec_PtrPush.exit.i15:                             ; preds = %77, %Vec_PtrGrow.exit.i.i19, %.Vec_PtrGrow.exit11_crit_edge.i.i12
  %79 = phi ptr [ %.pre.i.i14, %.Vec_PtrGrow.exit11_crit_edge.i.i12 ], [ %78, %77 ], [ %66, %Vec_PtrGrow.exit.i.i19 ]
  %80 = load i32, ptr %45, align 4, !tbaa !25
  %81 = add nsw i32 %80, 1
  store i32 %81, ptr %45, align 4, !tbaa !25
  br label %Vec_PtrPushUnique.exit.sink.split

tailrecurse:                                      ; preds = %.lr.ph
  %.val.i = load ptr, ptr %.tr38, align 8, !tbaa !51
  %82 = getelementptr i8, ptr %.tr38, i64 32
  %.val2.i = load ptr, ptr %82, align 8, !tbaa !52
  %83 = getelementptr i8, ptr %.val.i, i64 32
  %.val.val.i = load ptr, ptr %83, align 8, !tbaa !32
  %.val2.val.i = load i32, ptr %.val2.i, align 4, !tbaa !33
  %84 = getelementptr i8, ptr %.val.val.i, i64 8
  %.val.val.val.i = load ptr, ptr %84, align 8, !tbaa !27
  %85 = sext i32 %.val2.val.i to i64
  %86 = getelementptr inbounds ptr, ptr %.val.val.val.i, i64 %85
  %87 = load ptr, ptr %86, align 8, !tbaa !28
  %88 = lshr i32 %.val, 10
  %89 = and i32 %88, 1
  %90 = ptrtoint ptr %87 to i64
  %91 = zext nneg i32 %89 to i64
  %92 = xor i64 %90, %91
  %93 = inttoptr i64 %92 to ptr
  tail call fastcc void @Sim_SymmsBalanceCollect_rec(ptr noundef %93, ptr noundef %1)
  %.val.i26 = load ptr, ptr %.tr38, align 8, !tbaa !51
  %.val2.i27 = load ptr, ptr %82, align 8, !tbaa !52
  %94 = getelementptr i8, ptr %.val.i26, i64 32
  %.val.val.i28 = load ptr, ptr %94, align 8, !tbaa !32
  %95 = getelementptr i8, ptr %.val2.i27, i64 4
  %.val2.val.i29 = load i32, ptr %95, align 4, !tbaa !33
  %96 = getelementptr i8, ptr %.val.val.i28, i64 8
  %.val.val.val.i30 = load ptr, ptr %96, align 8, !tbaa !27
  %97 = sext i32 %.val2.val.i29 to i64
  %98 = getelementptr inbounds ptr, ptr %.val.val.val.i30, i64 %97
  %99 = load ptr, ptr %98, align 8, !tbaa !28
  %.val3.i31 = load i32, ptr %42, align 4
  %100 = lshr i32 %.val3.i31, 11
  %101 = and i32 %100, 1
  %102 = ptrtoint ptr %99 to i64
  %103 = zext nneg i32 %101 to i64
  %104 = xor i64 %103, %102
  %105 = inttoptr i64 %104 to ptr
  %106 = and i64 %104, 1
  %.not = icmp eq i64 %106, 0
  br i1 %.not, label %.lr.ph, label %tailrecurse._crit_edge

Vec_PtrPushUnique.exit.sink.split:                ; preds = %Vec_PtrPush.exit.i, %Vec_PtrPush.exit.i15
  %.sink = phi i32 [ %80, %Vec_PtrPush.exit.i15 ], [ %40, %Vec_PtrPush.exit.i ]
  %.sink43 = phi ptr [ %79, %Vec_PtrPush.exit.i15 ], [ %39, %Vec_PtrPush.exit.i ]
  %.tr38.lcssa.sink = phi ptr [ %.tr38, %Vec_PtrPush.exit.i15 ], [ %.tr.lcssa, %Vec_PtrPush.exit.i ]
  %107 = sext i32 %.sink to i64
  %108 = getelementptr inbounds ptr, ptr %.sink43, i64 %107
  store ptr %.tr38.lcssa.sink, ptr %108, align 8, !tbaa !28
  br label %Vec_PtrPushUnique.exit

Vec_PtrPushUnique.exit:                           ; preds = %51, %11, %Vec_PtrPushUnique.exit.sink.split
  ret void
}